target datalayout = "e-m:e-p270:32:32-p271:32:32-p272:64:64-i64:64-i128:128-f80:128-n8:16:32:64-S128"
target triple = "x86_64-pc-linux-gnu"

%struct.TupleTableSlotOps = type { i64, ptr, ptr, ptr, ptr, ptr, ptr, ptr, ptr, ptr, ptr, ptr, ptr }
%struct.GatherMergeState = type { %struct.PlanState, i8, i8, i8, i64, ptr, i32, ptr, ptr, i32, i32, ptr, ptr, ptr, ptr }
%struct.PlanState = type { i32, ptr, ptr, ptr, ptr, ptr, ptr, ptr, ptr, ptr, ptr, ptr, ptr, ptr, ptr, ptr, ptr, ptr, i8, ptr, ptr, ptr, ptr, ptr, i8, i8, i8, i8, i8, i8, i8, i8 }
%struct.Plan = type { i32, i32, double, double, double, i32, i8, i8, i8, i32, ptr, ptr, ptr, ptr, ptr, ptr, ptr }
%struct.GatherMerge = type { %struct.Plan, i32, i32, i32, ptr, ptr, ptr, ptr, ptr }
%struct.TupleTableSlot = type { i32, i16, i16, ptr, ptr, ptr, ptr, ptr, %struct.ItemPointerData, i32 }
%struct.ItemPointerData = type { %struct.BlockIdData, i16 }
%struct.BlockIdData = type { i16, i16 }
%struct.GMReaderTupleBuffer = type { ptr, i32, i32, i8 }

; Function Attrs: inlinehint nounwind uwtable
define internal ptr @ExecClearTuple(ptr noundef %0) #2 {
  %2 = alloca ptr, align 8
  store ptr %0, ptr %2, align 8
  %3 = load ptr, ptr %2, align 8
  %4 = getelementptr inbounds nuw %struct.TupleTableSlot, ptr %3, i32 0, i32 3
  %5 = load ptr, ptr %4, align 8
  %6 = getelementptr inbounds nuw %struct.TupleTableSlotOps, ptr %5, i32 0, i32 3
  %7 = load ptr, ptr %6, align 8
  %8 = load ptr, ptr %2, align 8
  call void %7(ptr noundef %8)
  %9 = load ptr, ptr %2, align 8
  ret ptr %9
}

; Function Attrs: nounwind uwtable
define internal void @gather_merge_clear_tuples(ptr noundef %0) #0 {
  %2 = alloca ptr, align 8
  %3 = alloca i32, align 4
  %4 = alloca ptr, align 8
  store ptr %0, ptr %2, align 8
  call void @llvm.lifetime.start.p0(i64 4, ptr %3) #6
  store i32 0, ptr %3, align 4
  br label %5

5:                                                ; preds = %47, %1
  %6 = load i32, ptr %3, align 4
  %7 = load ptr, ptr %2, align 8
  %8 = getelementptr inbounds nuw %struct.GatherMergeState, ptr %7, i32 0, i32 10
  %9 = load i32, ptr %8, align 4
  %10 = icmp slt i32 %6, %9
  br i1 %10, label %11, label %50

11:                                               ; preds = %5
  call void @llvm.lifetime.start.p0(i64 8, ptr %4) #6
  %12 = load ptr, ptr %2, align 8
  %13 = getelementptr inbounds nuw %struct.GatherMergeState, ptr %12, i32 0, i32 13
  %14 = load ptr, ptr %13, align 8
  %15 = load i32, ptr %3, align 4
  %16 = sext i32 %15 to i64
  %17 = getelementptr inbounds %struct.GMReaderTupleBuffer, ptr %14, i64 %16
  store ptr %17, ptr %4, align 8
  br label %18

18:                                               ; preds = %26, %11
  %19 = load ptr, ptr %4, align 8
  %20 = getelementptr inbounds nuw %struct.GMReaderTupleBuffer, ptr %19, i32 0, i32 2
  %21 = load i32, ptr %20, align 4
  %22 = load ptr, ptr %4, align 8
  %23 = getelementptr inbounds nuw %struct.GMReaderTupleBuffer, ptr %22, i32 0, i32 1
  %24 = load i32, ptr %23, align 8
  %25 = icmp slt i32 %21, %24
  br i1 %25, label %26, label %37

26:                                               ; preds = %18
  %27 = load ptr, ptr %4, align 8
  %28 = getelementptr inbounds nuw %struct.GMReaderTupleBuffer, ptr %27, i32 0, i32 0
  %29 = load ptr, ptr %28, align 8
  %30 = load ptr, ptr %4, align 8
  %31 = getelementptr inbounds nuw %struct.GMReaderTupleBuffer, ptr %30, i32 0, i32 2
  %32 = load i32, ptr %31, align 4
  %33 = add i32 %32, 1
  store i32 %33, ptr %31, align 4
  %34 = sext i32 %32 to i64
  %35 = getelementptr inbounds ptr, ptr %29, i64 %34
  %36 = load ptr, ptr %35, align 8
  call void @pfree(ptr noundef %36)
  br label %18, !llvm.loop !9

37:                                               ; preds = %18
  %38 = load ptr, ptr %2, align 8
  %39 = getelementptr inbounds nuw %struct.GatherMergeState, ptr %38, i32 0, i32 11
  %40 = load ptr, ptr %39, align 8
  %41 = load i32, ptr %3, align 4
  %42 = add i32 %41, 1
  %43 = sext i32 %42 to i64
  %44 = getelementptr inbounds ptr, ptr %40, i64 %43
  %45 = load ptr, ptr %44, align 8
  %46 = call ptr @ExecClearTuple(ptr noundef %45)
  call void @llvm.lifetime.end.p0(i64 8, ptr %4) #6
  br label %47

47:                                               ; preds = %37
  %48 = load i32, ptr %3, align 4
  %49 = add i32 %48, 1
  store i32 %49, ptr %3, align 4
  br label %5, !llvm.loop !10

50:                                               ; preds = %5
  call void @llvm.lifetime.end.p0(i64 4, ptr %3) #6
  ret void
}

; Function Attrs: nounwind uwtable
define internal void @ExecShutdownGatherMergeWorkers(ptr noundef %0) #0 {
  %2 = alloca ptr, align 8
  store ptr %0, ptr %2, align 8
  %3 = load ptr, ptr %2, align 8
  %4 = getelementptr inbounds nuw %struct.GatherMergeState, ptr %3, i32 0, i32 8
  %5 = load ptr, ptr %4, align 8
  %6 = icmp ne ptr %5, null
  br i1 %6, label %7, label %11

7:                                                ; preds = %1
  %8 = load ptr, ptr %2, align 8
  %9 = getelementptr inbounds nuw %struct.GatherMergeState, ptr %8, i32 0, i32 8
  %10 = load ptr, ptr %9, align 8
  call void @ExecParallelFinish(ptr noundef %10)
  br label %11

11:                                               ; preds = %7, %1
  %12 = load ptr, ptr %2, align 8
  %13 = getelementptr inbounds nuw %struct.GatherMergeState, ptr %12, i32 0, i32 12
  %14 = load ptr, ptr %13, align 8
  %15 = icmp ne ptr %14, null
  br i1 %15, label %16, label %20

16:                                               ; preds = %11
  %17 = load ptr, ptr %2, align 8
  %18 = getelementptr inbounds nuw %struct.GatherMergeState, ptr %17, i32 0, i32 12
  %19 = load ptr, ptr %18, align 8
  call void @pfree(ptr noundef %19)
  br label %20

20:                                               ; preds = %16, %11
  %21 = load ptr, ptr %2, align 8
  %22 = getelementptr inbounds nuw %struct.GatherMergeState, ptr %21, i32 0, i32 12
  store ptr null, ptr %22, align 8
  ret void
}

; Function Attrs: nounwind uwtable
define dso_local void @ExecReScanGatherMerge(ptr noundef %0) #0 {
  %2 = alloca ptr, align 8
  %3 = alloca ptr, align 8
  %4 = alloca ptr, align 8
  store ptr %0, ptr %2, align 8
  call void @llvm.lifetime.start.p0(i64 8, ptr %3) #6
  %5 = load ptr, ptr %2, align 8
  %6 = getelementptr inbounds nuw %struct.GatherMergeState, ptr %5, i32 0, i32 0
  %7 = getelementptr inbounds nuw %struct.PlanState, ptr %6, i32 0, i32 1
  %8 = load ptr, ptr %7, align 8
  store ptr %8, ptr %3, align 8
  call void @llvm.lifetime.start.p0(i64 8, ptr %4) #6
  %9 = load ptr, ptr %2, align 8
  %10 = getelementptr inbounds nuw %struct.PlanState, ptr %9, i32 0, i32 9
  %11 = load ptr, ptr %10, align 8
  store ptr %11, ptr %4, align 8
  %12 = load ptr, ptr %2, align 8
  call void @ExecShutdownGatherMergeWorkers(ptr noundef %12)
  %13 = load ptr, ptr %2, align 8
  call void @gather_merge_clear_tuples(ptr noundef %13)
  %14 = load ptr, ptr %2, align 8
  %15 = getelementptr inbounds nuw %struct.GatherMergeState, ptr %14, i32 0, i32 1
  store i8 0, ptr %15, align 8
  %16 = load ptr, ptr %2, align 8
  %17 = getelementptr inbounds nuw %struct.GatherMergeState, ptr %16, i32 0, i32 2
  store i8 0, ptr %17, align 1
  %18 = load ptr, ptr %3, align 8
  %19 = getelementptr inbounds nuw %struct.GatherMerge, ptr %18, i32 0, i32 2
  %20 = load i32, ptr %19, align 4
  %21 = icmp sge i32 %20, 0
  br i1 %21, label %22, label %32

22:                                               ; preds = %1
  %23 = load ptr, ptr %4, align 8
  %24 = getelementptr inbounds nuw %struct.PlanState, ptr %23, i32 0, i32 13
  %25 = load ptr, ptr %24, align 8
  %26 = load ptr, ptr %3, align 8
  %27 = getelementptr inbounds nuw %struct.GatherMerge, ptr %26, i32 0, i32 2
  %28 = load i32, ptr %27, align 4
  %29 = call ptr @bms_add_member(ptr noundef %25, i32 noundef %28)
  %30 = load ptr, ptr %4, align 8
  %31 = getelementptr inbounds nuw %struct.PlanState, ptr %30, i32 0, i32 13
  store ptr %29, ptr %31, align 8
  br label %32

32:                                               ; preds = %22, %1
  %33 = load ptr, ptr %4, align 8
  %34 = getelementptr inbounds nuw %struct.PlanState, ptr %33, i32 0, i32 13
  %35 = load ptr, ptr %34, align 8
  %36 = icmp eq ptr %35, null
  br i1 %36, label %37, label %39

37:                                               ; preds = %32
  %38 = load ptr, ptr %4, align 8
  call void @ExecReScan(ptr noundef %38)
  br label %39

39:                                               ; preds = %37, %32
  call void @llvm.lifetime.end.p0(i64 8, ptr %4) #6
  call void @llvm.lifetime.end.p0(i64 8, ptr %3) #6
  ret void
}