; Function Attrs: nounwind uwtable
define dso_local void @ExecReScanGatherMerge(ptr noundef captures(none) %0) local_unnamed_addr #0 {
  %2 = getelementptr inbounds nuw i8, ptr %0, i64 8
  %3 = load ptr, ptr %2, align 8
  %4 = getelementptr inbounds nuw i8, ptr %0, i64 72
  %5 = load ptr, ptr %4, align 8
  %6 = getelementptr inbounds nuw i8, ptr %0, i64 240
  %7 = load ptr, ptr %6, align 8
  %.not.i = icmp eq ptr %7, null
  br i1 %.not.i, label %9, label %8

8:                                                ; preds = %1
  tail call void @ExecParallelFinish(ptr noundef nonnull %7) #4
  br label %9

9:                                                ; preds = %8, %1
  %10 = getelementptr inbounds nuw i8, ptr %0, i64 264
  %11 = load ptr, ptr %10, align 8
  %.not6.i = icmp eq ptr %11, null
  br i1 %.not6.i, label %ExecShutdownGatherMergeWorkers.exit, label %12

12:                                               ; preds = %9
  tail call void @pfree(ptr noundef nonnull %11) #4
  br label %ExecShutdownGatherMergeWorkers.exit

ExecShutdownGatherMergeWorkers.exit:              ; preds = %9, %12
  store ptr null, ptr %10, align 8
  %13 = getelementptr inbounds nuw i8, ptr %0, i64 252
  %14 = load i32, ptr %13, align 4
  %15 = icmp sgt i32 %14, 0
  br i1 %15, label %.lr.ph13.i, label %gather_merge_clear_tuples.exit

.lr.ph13.i:                                       ; preds = %ExecShutdownGatherMergeWorkers.exit
  %16 = getelementptr inbounds nuw i8, ptr %0, i64 272
  %17 = getelementptr inbounds nuw i8, ptr %0, i64 256
  br label %18

18:                                               ; preds = %._crit_edge.i, %.lr.ph13.i
  %indvars.iv.i = phi i64 [ 0, %.lr.ph13.i ], [ %indvars.iv.next.i, %._crit_edge.i ]
  %19 = load ptr, ptr %16, align 8
  %20 = getelementptr inbounds nuw %struct.GMReaderTupleBuffer, ptr %19, i64 %indvars.iv.i
  %21 = getelementptr inbounds nuw i8, ptr %20, i64 12
  %22 = getelementptr inbounds nuw i8, ptr %20, i64 8
  %23 = load i32, ptr %21, align 4
  %24 = load i32, ptr %22, align 8
  %25 = icmp slt i32 %23, %24
  br i1 %25, label %.lr.ph.i, label %._crit_edge.i

.lr.ph.i:                                         ; preds = %18, %.lr.ph.i
  %26 = phi i32 [ %32, %.lr.ph.i ], [ %23, %18 ]
  %27 = load ptr, ptr %20, align 8
  %28 = add nsw i32 %26, 1
  store i32 %28, ptr %21, align 4
  %29 = sext i32 %26 to i64
  %30 = getelementptr inbounds ptr, ptr %27, i64 %29
  %31 = load ptr, ptr %30, align 8
  tail call void @pfree(ptr noundef %31) #4
  %32 = load i32, ptr %21, align 4
  %33 = load i32, ptr %22, align 8
  %34 = icmp slt i32 %32, %33
  br i1 %34, label %.lr.ph.i, label %._crit_edge.i, !llvm.loop !14

._crit_edge.i:                                    ; preds = %.lr.ph.i, %18
  %35 = load ptr, ptr %17, align 8
  %indvars.iv.next.i = add nuw nsw i64 %indvars.iv.i, 1
  %36 = getelementptr inbounds nuw ptr, ptr %35, i64 %indvars.iv.next.i
  %37 = load ptr, ptr %36, align 8
  %38 = getelementptr inbounds nuw i8, ptr %37, i64 8
  %39 = load ptr, ptr %38, align 8
  %40 = getelementptr inbounds nuw i8, ptr %39, i64 24
  %41 = load ptr, ptr %40, align 8
  tail call void %41(ptr noundef %37) #4
  %42 = load i32, ptr %13, align 4
  %43 = sext i32 %42 to i64
  %44 = icmp slt i64 %indvars.iv.next.i, %43
  br i1 %44, label %18, label %gather_merge_clear_tuples.exit, !llvm.loop !15

gather_merge_clear_tuples.exit:                   ; preds = %._crit_edge.i, %ExecShutdownGatherMergeWorkers.exit
  %45 = getelementptr inbounds nuw i8, ptr %0, i64 200
  store i8 0, ptr %45, align 8
  %46 = getelementptr inbounds nuw i8, ptr %0, i64 201
  store i8 0, ptr %46, align 1
  %47 = getelementptr inbounds nuw i8, ptr %3, i64 108
  %48 = load i32, ptr %47, align 4
  %49 = icmp sgt i32 %48, -1
  %50 = getelementptr inbounds nuw i8, ptr %5, i64 104
  %51 = load ptr, ptr %50, align 8
  br i1 %49, label %52, label %gather_merge_clear_tuples.exit._crit_edge

52:                                               ; preds = %gather_merge_clear_tuples.exit
  %53 = tail call ptr @bms_add_member(ptr noundef %51, i32 noundef %48) #4
  store ptr %53, ptr %50, align 8
  br label %gather_merge_clear_tuples.exit._crit_edge

gather_merge_clear_tuples.exit._crit_edge:        ; preds = %gather_merge_clear_tuples.exit, %52
  %54 = phi ptr [ %53, %52 ], [ %51, %gather_merge_clear_tuples.exit ]
  %55 = icmp eq ptr %54, null
  br i1 %55, label %56, label %57

56:                                               ; preds = %gather_merge_clear_tuples.exit._crit_edge
  tail call void @ExecReScan(ptr noundef nonnull %5) #4
  br label %57

57:                                               ; preds = %56, %gather_merge_clear_tuples.exit._crit_edge
  ret void
}